; Function Attrs: null_pointer_is_valid sspstrong uwtable
define internal void @extcap_free_interface_info(ptr noundef %0) #0 {
  %2 = load ptr, ptr %0, align 8
  tail call void @g_free(ptr noundef %2)
  %3 = getelementptr inbounds nuw i8, ptr %0, i64 8
  %4 = load ptr, ptr %3, align 8
  tail call void @g_free(ptr noundef %4)
  %5 = getelementptr inbounds nuw i8, ptr %0, i64 16
  %6 = load ptr, ptr %5, align 8
  tail call void @g_free(ptr noundef %6)
  %7 = getelementptr inbounds nuw i8, ptr %0, i64 24
  %8 = load ptr, ptr %7, align 8
  tail call void @g_free(ptr noundef %8)
  %9 = getelementptr inbounds nuw i8, ptr %0, i64 32
  %10 = load ptr, ptr %9, align 8
  %11 = icmp eq ptr %10, null
  br i1 %11, label %extcap_free_interfaces.exit, label %12

12:                                               ; preds = %1
  tail call void @g_list_free_full(ptr noundef nonnull %10, ptr noundef nonnull @extcap_free_interface)
  br label %extcap_free_interfaces.exit

extcap_free_interfaces.exit:                      ; preds = %1, %12
  tail call void @g_free(ptr noundef %0)
  ret void
}